target datalayout = "e-m:e-p270:32:32-p271:32:32-p272:64:64-i64:64-i128:128-f80:128-n8:16:32:64-S128"
target triple = "x86_64-pc-linux-gnu"

%"class.net::QuicTime" = type { i64 }
%"class.std::__cxx11::basic_string" = type { %"struct.std::__cxx11::basic_string<char>::_Alloc_hider", i64, %union.anon }
%"struct.std::__cxx11::basic_string<char>::_Alloc_hider" = type { ptr }
%union.anon = type { i64, [8 x i8] }
%"class.net::QuicTime::Delta" = type { %"class.base::TimeDelta", i64 }
%"class.base::TimeDelta" = type { i64 }
%"class.base::BasicStringPiece" = type { ptr, i64 }
%"class.std::unique_ptr.287" = type { %"struct.std::__uniq_ptr_data.288" }
%"struct.std::__uniq_ptr_data.288" = type { %"class.std::__uniq_ptr_impl.289" }
%"class.std::__uniq_ptr_impl.289" = type { %"class.std::tuple.290" }
%"class.std::tuple.290" = type { %"struct.std::_Tuple_impl.291" }
%"struct.std::_Tuple_impl.291" = type { %"struct.std::_Head_base.294" }
%"struct.std::_Head_base.294" = type { ptr }
%"class.net::(anonymous namespace)::HeaderTableDebugVisitor" = type { %"class.net::HpackHeaderTable::DebugVisitorInterface", ptr, %"class.std::unique_ptr.287" }
%"class.net::HpackHeaderTable::DebugVisitorInterface" = type { ptr }
%"class.net::HpackEntry" = type { %"class.std::__cxx11::basic_string", %"class.std::__cxx11::basic_string", %"class.base::BasicStringPiece", %"class.base::BasicStringPiece", i64, i32, i64 }

; Function Attrs: mustprogress nounwind uwtable
define linkonce_odr noundef nonnull align 8 dereferenceable(8) ptr @_ZNSt10_Head_baseILm0EPN3net17QuicHeadersStream17HpackDebugVisitorELb0EE7_M_headERKS4_(ptr noundef nonnull align 8 dereferenceable(8) %0) #0 comdat align 2 {
  %2 = alloca ptr, align 8
  store ptr %0, ptr %2, align 8, !tbaa !528
  %3 = load ptr, ptr %2, align 8, !tbaa !528
  %4 = getelementptr inbounds nuw %"struct.std::_Head_base.294", ptr %3, i32 0, i32 0
  ret ptr %4
}

; Function Attrs: mustprogress nounwind uwtable
define linkonce_odr noundef nonnull align 8 dereferenceable(8) ptr @_ZNSt11_Tuple_implILm0EJPN3net17QuicHeadersStream17HpackDebugVisitorESt14default_deleteIS2_EEE7_M_headERKS6_(ptr noundef nonnull align 8 dereferenceable(8) %0) #0 comdat align 2 {
  %2 = alloca ptr, align 8
  store ptr %0, ptr %2, align 8, !tbaa !523
  %3 = load ptr, ptr %2, align 8, !tbaa !523
  %4 = call noundef nonnull align 8 dereferenceable(8) ptr @_ZNSt10_Head_baseILm0EPN3net17QuicHeadersStream17HpackDebugVisitorELb0EE7_M_headERKS4_(ptr noundef nonnull align 8 dereferenceable(8) %3) #18
  ret ptr %4
}

; Function Attrs: mustprogress nounwind uwtable
define linkonce_odr noundef nonnull align 8 dereferenceable(8) ptr @_ZSt12__get_helperILm0EPN3net17QuicHeadersStream17HpackDebugVisitorEJSt14default_deleteIS2_EEERKT0_RKSt11_Tuple_implIXT_EJS6_DpT1_EE(ptr noundef nonnull align 8 dereferenceable(8) %0) #0 comdat {
  %2 = alloca ptr, align 8
  store ptr %0, ptr %2, align 8, !tbaa !523
  %3 = load ptr, ptr %2, align 8, !tbaa !523
  %4 = call noundef nonnull align 8 dereferenceable(8) ptr @_ZNSt11_Tuple_implILm0EJPN3net17QuicHeadersStream17HpackDebugVisitorESt14default_deleteIS2_EEE7_M_headERKS6_(ptr noundef nonnull align 8 dereferenceable(8) %3) #18
  ret ptr %4
}

; Function Attrs: mustprogress nounwind uwtable
define linkonce_odr noundef nonnull align 8 dereferenceable(8) ptr @_ZSt3getILm0EJPN3net17QuicHeadersStream17HpackDebugVisitorESt14default_deleteIS2_EEERKNSt13tuple_elementIXT_ESt5tupleIJDpT0_EEE4typeERKSA_(ptr noundef nonnull align 8 dereferenceable(8) %0) #0 comdat {
  %2 = alloca ptr, align 8
  store ptr %0, ptr %2, align 8, !tbaa !521
  %3 = load ptr, ptr %2, align 8, !tbaa !521
  %4 = call noundef nonnull align 8 dereferenceable(8) ptr @_ZSt12__get_helperILm0EPN3net17QuicHeadersStream17HpackDebugVisitorEJSt14default_deleteIS2_EEERKT0_RKSt11_Tuple_implIXT_EJS6_DpT1_EE(ptr noundef nonnull align 8 dereferenceable(8) %3) #18
  ret ptr %4
}

; Function Attrs: mustprogress nounwind uwtable
define linkonce_odr noundef ptr @_ZNKSt15__uniq_ptr_implIN3net17QuicHeadersStream17HpackDebugVisitorESt14default_deleteIS2_EE6_M_ptrEv(ptr noundef nonnull align 8 dereferenceable(8) %0) #0 comdat align 2 {
  %2 = alloca ptr, align 8
  store ptr %0, ptr %2, align 8, !tbaa !519
  %3 = load ptr, ptr %2, align 8
  %4 = getelementptr inbounds nuw %"class.std::__uniq_ptr_impl.289", ptr %3, i32 0, i32 0
  %5 = call noundef nonnull align 8 dereferenceable(8) ptr @_ZSt3getILm0EJPN3net17QuicHeadersStream17HpackDebugVisitorESt14default_deleteIS2_EEERKNSt13tuple_elementIXT_ESt5tupleIJDpT0_EEE4typeERKSA_(ptr noundef nonnull align 8 dereferenceable(8) %4) #18
  %6 = load ptr, ptr %5, align 8, !tbaa !3
  ret ptr %6
}

; Function Attrs: mustprogress nounwind uwtable
define linkonce_odr void @_ZN4base9TimeDeltaC2Ev(ptr noundef nonnull align 8 dereferenceable(8) %0) unnamed_addr #0 comdat align 2 {
  %2 = alloca ptr, align 8
  store ptr %0, ptr %2, align 8, !tbaa !508
  %3 = load ptr, ptr %2, align 8
  %4 = getelementptr inbounds nuw %"class.base::TimeDelta", ptr %3, i32 0, i32 0
  store i64 0, ptr %4, align 8, !tbaa !510
  ret void
}

; Function Attrs: mustprogress nounwind uwtable
define linkonce_odr noundef ptr @_ZNKSt10unique_ptrIN3net17QuicHeadersStream17HpackDebugVisitorESt14default_deleteIS2_EE3getEv(ptr noundef nonnull align 8 dereferenceable(8) %0) #0 comdat align 2 {
  %2 = alloca ptr, align 8
  store ptr %0, ptr %2, align 8, !tbaa !440
  %3 = load ptr, ptr %2, align 8
  %4 = getelementptr inbounds nuw %"class.std::unique_ptr.287", ptr %3, i32 0, i32 0
  %5 = call noundef ptr @_ZNKSt15__uniq_ptr_implIN3net17QuicHeadersStream17HpackDebugVisitorESt14default_deleteIS2_EE6_M_ptrEv(ptr noundef nonnull align 8 dereferenceable(8) %4) #18
  ret ptr %5
}

; Function Attrs: inlinehint mustprogress nounwind uwtable
define linkonce_odr void @_ZN3net8QuicTimeC2El(ptr noundef nonnull align 8 dereferenceable(8) %0, i64 noundef %1) unnamed_addr #9 comdat align 2 {
  %3 = alloca ptr, align 8
  %4 = alloca i64, align 8
  store ptr %0, ptr %3, align 8, !tbaa !298
  store i64 %1, ptr %4, align 8, !tbaa !250
  %5 = load ptr, ptr %3, align 8
  %6 = getelementptr inbounds nuw %"class.net::QuicTime", ptr %5, i32 0, i32 0
  %7 = load i64, ptr %4, align 8, !tbaa !250
  store i64 %7, ptr %6, align 8, !tbaa !311
  ret void
}

; Function Attrs: inlinehint mustprogress uwtable
define linkonce_odr void @_ZN3net8QuicTime5DeltaC2El(ptr noundef nonnull align 8 dereferenceable(16) %0, i64 noundef %1) unnamed_addr #4 comdat align 2 {
  %3 = alloca ptr, align 8
  %4 = alloca i64, align 8
  store ptr %0, ptr %3, align 8, !tbaa !505
  store i64 %1, ptr %4, align 8, !tbaa !250
  %5 = load ptr, ptr %3, align 8
  %6 = getelementptr inbounds nuw %"class.net::QuicTime::Delta", ptr %5, i32 0, i32 0
  call void @_ZN4base9TimeDeltaC2Ev(ptr noundef nonnull align 8 dereferenceable(8) %6)
  %7 = getelementptr inbounds nuw %"class.net::QuicTime::Delta", ptr %5, i32 0, i32 1
  %8 = load i64, ptr %4, align 8, !tbaa !250
  store i64 %8, ptr %7, align 8, !tbaa !507
  ret void
}

; Function Attrs: mustprogress nounwind uwtable
define linkonce_odr noundef ptr @_ZNKSt10unique_ptrIN3net17QuicHeadersStream17HpackDebugVisitorESt14default_deleteIS2_EEptEv(ptr noundef nonnull align 8 dereferenceable(8) %0) #0 comdat align 2 {
  %2 = alloca ptr, align 8
  store ptr %0, ptr %2, align 8, !tbaa !440
  %3 = load ptr, ptr %2, align 8
  %4 = call noundef ptr @_ZNKSt10unique_ptrIN3net17QuicHeadersStream17HpackDebugVisitorESt14default_deleteIS2_EE3getEv(ptr noundef nonnull align 8 dereferenceable(8) %3) #18
  ret ptr %4
}

; Function Attrs: inlinehint mustprogress uwtable
define linkonce_odr { i64, i64 } @_ZN3netmiENS_8QuicTimeES0_(i64 %0, i64 %1) #4 comdat {
  %3 = alloca %"class.net::QuicTime::Delta", align 8
  %4 = alloca %"class.net::QuicTime", align 8
  %5 = alloca %"class.net::QuicTime", align 8
  %6 = getelementptr inbounds nuw %"class.net::QuicTime", ptr %4, i32 0, i32 0
  store i64 %0, ptr %6, align 8
  %7 = getelementptr inbounds nuw %"class.net::QuicTime", ptr %5, i32 0, i32 0
  store i64 %1, ptr %7, align 8
  %8 = getelementptr inbounds nuw %"class.net::QuicTime", ptr %4, i32 0, i32 0
  %9 = load i64, ptr %8, align 8, !tbaa !311
  %10 = getelementptr inbounds nuw %"class.net::QuicTime", ptr %5, i32 0, i32 0
  %11 = load i64, ptr %10, align 8, !tbaa !311
  %12 = sub nsw i64 %9, %11
  call void @_ZN3net8QuicTime5DeltaC2El(ptr noundef nonnull align 8 dereferenceable(16) %3, i64 noundef %12)
  %13 = load { i64, i64 }, ptr %3, align 8
  ret { i64, i64 } %13
}

; Function Attrs: inlinehint mustprogress uwtable
define linkonce_odr i64 @_ZN3net8QuicTime4ZeroEv() #4 comdat align 2 {
  %1 = alloca %"class.net::QuicTime", align 8
  call void @_ZN3net8QuicTimeC2El(ptr noundef nonnull align 8 dereferenceable(8) %1, i64 noundef 0)
  %2 = getelementptr inbounds nuw %"class.net::QuicTime", ptr %1, i32 0, i32 0
  %3 = load i64, ptr %2, align 8
  ret i64 %3
}

; Function Attrs: inlinehint mustprogress uwtable
define linkonce_odr i64 @_ZN3netmiENS_8QuicTimeENS0_5DeltaE(i64 %0, i64 %1, i64 %2) #4 comdat {
  %4 = alloca %"class.net::QuicTime", align 8
  %5 = alloca %"class.net::QuicTime", align 8
  %6 = alloca %"class.net::QuicTime::Delta", align 8
  %7 = getelementptr inbounds nuw %"class.net::QuicTime", ptr %5, i32 0, i32 0
  store i64 %0, ptr %7, align 8
  %8 = getelementptr inbounds nuw { i64, i64 }, ptr %6, i32 0, i32 0
  store i64 %1, ptr %8, align 8
  %9 = getelementptr inbounds nuw { i64, i64 }, ptr %6, i32 0, i32 1
  store i64 %2, ptr %9, align 8
  %10 = getelementptr inbounds nuw %"class.net::QuicTime", ptr %5, i32 0, i32 0
  %11 = load i64, ptr %10, align 8, !tbaa !311
  %12 = getelementptr inbounds nuw %"class.net::QuicTime::Delta", ptr %6, i32 0, i32 1
  %13 = load i64, ptr %12, align 8, !tbaa !507
  %14 = sub nsw i64 %11, %13
  call void @_ZN3net8QuicTimeC2El(ptr noundef nonnull align 8 dereferenceable(8) %4, i64 noundef %14)
  %15 = getelementptr inbounds nuw %"class.net::QuicTime", ptr %4, i32 0, i32 0
  %16 = load i64, ptr %15, align 8
  ret i64 %16
}

; Function Attrs: inlinehint mustprogress uwtable
define linkonce_odr { i64, i64 } @_ZN3net8QuicTime5Delta16FromMicrosecondsEl(i64 noundef %0) #4 comdat align 2 {
  %2 = alloca %"class.net::QuicTime::Delta", align 8
  %3 = alloca i64, align 8
  store i64 %0, ptr %3, align 8, !tbaa !250
  %4 = load i64, ptr %3, align 8, !tbaa !250
  call void @_ZN3net8QuicTime5DeltaC2El(ptr noundef nonnull align 8 dereferenceable(16) %2, i64 noundef %4)
  %5 = load { i64, i64 }, ptr %2, align 8
  ret { i64, i64 } %5
}

; Function Attrs: mustprogress nounwind uwtable
define linkonce_odr noundef i64 @_ZNK3net10HpackEntry10time_addedEv(ptr noundef nonnull align 8 dereferenceable(120) %0) #0 comdat align 2 {
  %2 = alloca ptr, align 8
  store ptr %0, ptr %2, align 8, !tbaa !530
  %3 = load ptr, ptr %2, align 8
  %4 = getelementptr inbounds nuw %"class.net::HpackEntry", ptr %3, i32 0, i32 6
  %5 = load i64, ptr %4, align 8, !tbaa !532
  ret i64 %5
}

; Function Attrs: mustprogress uwtable
define internal void @_ZN3net12_GLOBAL__N_123HeaderTableDebugVisitor10OnUseEntryERKNS_10HpackEntryE(ptr noundef nonnull align 8 dereferenceable(24) %0, ptr noundef nonnull align 8 dereferenceable(120) %1) unnamed_addr #2 align 2 {
  %3 = alloca ptr, align 8
  %4 = alloca ptr, align 8
  %5 = alloca %"class.net::QuicTime::Delta", align 8
  %6 = alloca %"class.net::QuicTime", align 8
  %7 = alloca %"class.net::QuicTime", align 8
  %8 = alloca %"class.net::QuicTime::Delta", align 8
  %9 = alloca %"class.net::QuicTime", align 8
  %10 = alloca %"class.net::QuicTime::Delta", align 8
  store ptr %0, ptr %3, align 8, !tbaa !443
  store ptr %1, ptr %4, align 8, !tbaa !530
  %11 = load ptr, ptr %3, align 8
  call void @llvm.lifetime.start.p0(i64 16, ptr %5) #18
  %12 = getelementptr inbounds nuw %"class.net::(anonymous namespace)::HeaderTableDebugVisitor", ptr %11, i32 0, i32 1
  %13 = load ptr, ptr %12, align 8, !tbaa !446
  %14 = load ptr, ptr %13, align 8, !tbaa !8
  %15 = getelementptr inbounds ptr, ptr %14, i64 2
  %16 = load ptr, ptr %15, align 8
  %17 = call i64 %16(ptr noundef nonnull align 8 dereferenceable(8) %13)
  %18 = getelementptr inbounds nuw %"class.net::QuicTime", ptr %7, i32 0, i32 0
  store i64 %17, ptr %18, align 8
  %19 = load ptr, ptr %4, align 8, !tbaa !530
  %20 = call noundef i64 @_ZNK3net10HpackEntry10time_addedEv(ptr noundef nonnull align 8 dereferenceable(120) %19)
  %21 = call { i64, i64 } @_ZN3net8QuicTime5Delta16FromMicrosecondsEl(i64 noundef %20)
  %22 = getelementptr inbounds nuw { i64, i64 }, ptr %8, i32 0, i32 0
  %23 = extractvalue { i64, i64 } %21, 0
  store i64 %23, ptr %22, align 8
  %24 = getelementptr inbounds nuw { i64, i64 }, ptr %8, i32 0, i32 1
  %25 = extractvalue { i64, i64 } %21, 1
  store i64 %25, ptr %24, align 8
  %26 = getelementptr inbounds nuw %"class.net::QuicTime", ptr %7, i32 0, i32 0
  %27 = load i64, ptr %26, align 8
  %28 = getelementptr inbounds nuw { i64, i64 }, ptr %8, i32 0, i32 0
  %29 = load i64, ptr %28, align 8
  %30 = getelementptr inbounds nuw { i64, i64 }, ptr %8, i32 0, i32 1
  %31 = load i64, ptr %30, align 8
  %32 = call i64 @_ZN3netmiENS_8QuicTimeENS0_5DeltaE(i64 %27, i64 %29, i64 %31)
  %33 = getelementptr inbounds nuw %"class.net::QuicTime", ptr %6, i32 0, i32 0
  store i64 %32, ptr %33, align 8
  %34 = call i64 @_ZN3net8QuicTime4ZeroEv()
  %35 = getelementptr inbounds nuw %"class.net::QuicTime", ptr %9, i32 0, i32 0
  store i64 %34, ptr %35, align 8
  %36 = getelementptr inbounds nuw %"class.net::QuicTime", ptr %6, i32 0, i32 0
  %37 = load i64, ptr %36, align 8
  %38 = getelementptr inbounds nuw %"class.net::QuicTime", ptr %9, i32 0, i32 0
  %39 = load i64, ptr %38, align 8
  %40 = call { i64, i64 } @_ZN3netmiENS_8QuicTimeES0_(i64 %37, i64 %39)
  %41 = getelementptr inbounds nuw { i64, i64 }, ptr %5, i32 0, i32 0
  %42 = extractvalue { i64, i64 } %40, 0
  store i64 %42, ptr %41, align 8
  %43 = getelementptr inbounds nuw { i64, i64 }, ptr %5, i32 0, i32 1
  %44 = extractvalue { i64, i64 } %40, 1
  store i64 %44, ptr %43, align 8
  %45 = getelementptr inbounds nuw %"class.net::(anonymous namespace)::HeaderTableDebugVisitor", ptr %11, i32 0, i32 2
  %46 = call noundef ptr @_ZNKSt10unique_ptrIN3net17QuicHeadersStream17HpackDebugVisitorESt14default_deleteIS2_EEptEv(ptr noundef nonnull align 8 dereferenceable(8) %45) #18
  call void @llvm.memcpy.p0.p0.i64(ptr align 8 %10, ptr align 8 %5, i64 16, i1 false), !tbaa.struct !308
  %47 = getelementptr inbounds nuw { i64, i64 }, ptr %10, i32 0, i32 0
  %48 = load i64, ptr %47, align 8
  %49 = getelementptr inbounds nuw { i64, i64 }, ptr %10, i32 0, i32 1
  %50 = load i64, ptr %49, align 8
  %51 = load ptr, ptr %46, align 8, !tbaa !8
  %52 = getelementptr inbounds ptr, ptr %51, i64 2
  %53 = load ptr, ptr %52, align 8
  call void %53(ptr noundef nonnull align 8 dereferenceable(8) %46, i64 %48, i64 %50)
  call void @llvm.lifetime.end.p0(i64 16, ptr %5) #18
  ret void
}