; Function Attrs: mustprogress uwtable
define internal void @_ZN3net12_GLOBAL__N_123HeaderTableDebugVisitor10OnUseEntryERKNS_10HpackEntryE(ptr noundef nonnull readonly align 8 captures(none) dereferenceable(24) %0, ptr noundef nonnull readonly align 8 captures(none) dereferenceable(120) %1) unnamed_addr #4 align 2 {
  %3 = getelementptr inbounds nuw i8, ptr %0, i64 8
  %4 = load ptr, ptr %3, align 8, !tbaa !387
  %5 = load ptr, ptr %4, align 8, !tbaa !3
  %6 = getelementptr inbounds nuw i8, ptr %5, i64 16
  %7 = load ptr, ptr %6, align 8
  %8 = tail call i64 %7(ptr noundef nonnull align 8 dereferenceable(8) %4)
  %9 = getelementptr inbounds nuw i8, ptr %1, i64 112
  %10 = load i64, ptr %9, align 8, !tbaa !412
  %11 = sub nsw i64 %8, %10
  %12 = getelementptr inbounds nuw i8, ptr %0, i64 16
  %13 = load ptr, ptr %12, align 8, !tbaa !385
  %14 = load ptr, ptr %13, align 8, !tbaa !3
  %15 = getelementptr inbounds nuw i8, ptr %14, i64 16
  %16 = load ptr, ptr %15, align 8
  tail call void %16(ptr noundef nonnull align 8 dereferenceable(8) %13, i64 0, i64 %11)
  ret void
}